target datalayout = "e-m:e-p270:32:32-p271:32:32-p272:64:64-i64:64-i128:128-f80:128-n8:16:32:64-S128"
target triple = "x86_64-unknown-linux-gnu"

%"class.proxygen::HQByteEventTracker" = type { %"class.proxygen::ByteEventTracker", ptr, i64 }
%"class.proxygen::ByteEventTracker" = type { ptr, i64, %"class.boost::intrusive::list", ptr }
%"class.boost::intrusive::list" = type { %"class.boost::intrusive::list_impl" }
%"class.boost::intrusive::list_impl" = type { %"struct.boost::intrusive::list_impl<boost::intrusive::mhtraits<proxygen::ByteEvent, boost::intrusive::list_member_hook<boost::intrusive::link_mode<boost::intrusive::safe_link>>, &proxygen::ByteEvent::listHook>, unsigned long, true, void>::data_t" }
%"struct.boost::intrusive::list_impl<boost::intrusive::mhtraits<proxygen::ByteEvent, boost::intrusive::list_member_hook<boost::intrusive::link_mode<boost::intrusive::safe_link>>, &proxygen::ByteEvent::listHook>, unsigned long, true, void>::data_t" = type { %"struct.boost::intrusive::list_impl<boost::intrusive::mhtraits<proxygen::ByteEvent, boost::intrusive::list_member_hook<boost::intrusive::link_mode<boost::intrusive::safe_link>>, &proxygen::ByteEvent::listHook>, unsigned long, true, void>::root_plus_size" }
%"struct.boost::intrusive::list_impl<boost::intrusive::mhtraits<proxygen::ByteEvent, boost::intrusive::list_member_hook<boost::intrusive::link_mode<boost::intrusive::safe_link>>, &proxygen::ByteEvent::listHook>, unsigned long, true, void>::root_plus_size" = type { %"struct.boost::intrusive::detail::size_holder", %"struct.boost::intrusive::detail::default_header_holder" }
%"struct.boost::intrusive::detail::size_holder" = type { i64 }
%"struct.boost::intrusive::detail::default_header_holder" = type { %"struct.boost::intrusive::list_node" }
%"struct.boost::intrusive::list_node" = type { ptr, ptr }
%"struct.boost::intrusive::mhtraits" = type { i8 }

@_ZTVN8proxygen16ByteEventTrackerE = external unnamed_addr constant { [17 x ptr] }, align 8

; Function Attrs: noreturn nounwind uwtable
define linkonce_odr hidden void @__clang_call_terminate(ptr noundef %0) #9 comdat {
  %2 = call ptr @__cxa_begin_catch(ptr %0) #3
  call void @_ZSt9terminatev() #16
  unreachable
}

; Function Attrs: mustprogress nounwind uwtable
define linkonce_odr void @_ZN5boost9intrusive6detail21default_header_holderINS0_16list_node_traitsIPvEEEC2Ev(ptr noundef nonnull align 8 dereferenceable(16) %this) unnamed_addr #5 comdat align 2 {
entry:
  %this.addr = alloca ptr, align 8
  store ptr %this, ptr %this.addr, align 8
  %this1 = load ptr, ptr %this.addr, align 8
  %0 = getelementptr inbounds i8, ptr %this1, i64 0
  call void @llvm.memset.p0.i64(ptr align 8 %0, i8 0, i64 16, i1 false)
  ret void
}

; Function Attrs: mustprogress nounwind uwtable
define linkonce_odr void @_ZN5boost9intrusive24circular_list_algorithmsINS0_16list_node_traitsIPvEEE11init_headerEPNS0_9list_nodeIS3_EE(ptr noundef %this_node) #5 comdat align 2 personality ptr @__gxx_personality_v0 {
entry:
  %n.addr.i2 = alloca ptr, align 8
  %prev.addr.i = alloca ptr, align 8
  %n.addr.i = alloca ptr, align 8
  %next.addr.i = alloca ptr, align 8
  %this_node.addr = alloca ptr, align 8
  store ptr %this_node, ptr %this_node.addr, align 8
  %0 = load ptr, ptr %this_node.addr, align 8
  %1 = load ptr, ptr %this_node.addr, align 8
  store ptr %0, ptr %n.addr.i, align 8
  store ptr %1, ptr %next.addr.i, align 8
  %2 = load ptr, ptr %next.addr.i, align 8
  %3 = load ptr, ptr %n.addr.i, align 8
  store ptr %2, ptr %3, align 8
  br label %invoke.cont

invoke.cont:                                      ; preds = %entry
  %4 = load ptr, ptr %this_node.addr, align 8
  %5 = load ptr, ptr %this_node.addr, align 8
  store ptr %4, ptr %n.addr.i2, align 8
  store ptr %5, ptr %prev.addr.i, align 8
  %6 = load ptr, ptr %prev.addr.i, align 8
  %7 = load ptr, ptr %n.addr.i2, align 8
  %prev_.i = getelementptr inbounds %"struct.boost::intrusive::list_node", ptr %7, i32 0, i32 1
  store ptr %6, ptr %prev_.i, align 8
  br label %invoke.cont1

invoke.cont1:                                     ; preds = %invoke.cont
  ret void

terminate.lpad:                                   ; No predecessors!
  %8 = landingpad { ptr, i32 }
          catch ptr null
  %9 = extractvalue { ptr, i32 } %8, 0
  call void @__clang_call_terminate(ptr %9) #16
  unreachable
}

; Function Attrs: mustprogress uwtable
define linkonce_odr void @_ZN5boost9intrusive9list_implINS0_8mhtraitsIN8proxygen9ByteEventENS0_16list_member_hookIJNS0_9link_modeILNS0_14link_mode_typeE1EEEEEEXadL_ZNS4_8listHookEEEEEmLb1EvE14root_plus_sizeC2Ev(ptr noundef nonnull align 8 dereferenceable(24) %this) unnamed_addr #4 comdat align 2 {
entry:
  %this.addr = alloca ptr, align 8
  store ptr %this, ptr %this.addr, align 8
  %this1 = load ptr, ptr %this.addr, align 8
  %m_header = getelementptr inbounds %"struct.boost::intrusive::list_impl<boost::intrusive::mhtraits<proxygen::ByteEvent, boost::intrusive::list_member_hook<boost::intrusive::link_mode<boost::intrusive::safe_link>>, &proxygen::ByteEvent::listHook>, unsigned long, true, void>::root_plus_size", ptr %this1, i32 0, i32 1
  call void @_ZN5boost9intrusive6detail21default_header_holderINS0_16list_node_traitsIPvEEEC2Ev(ptr noundef nonnull align 8 dereferenceable(16) %m_header)
  ret void
}

; Function Attrs: mustprogress uwtable
define linkonce_odr void @_ZN5boost9intrusive9list_implINS0_8mhtraitsIN8proxygen9ByteEventENS0_16list_member_hookIJNS0_9link_modeILNS0_14link_mode_typeE1EEEEEEXadL_ZNS4_8listHookEEEEEmLb1EvEC2Ev(ptr noundef nonnull align 8 dereferenceable(24) %this) unnamed_addr #4 comdat align 2 {
entry:
  %v.addr.i = alloca ptr, align 8
  %r.addr.i = alloca ptr, align 8
  %this.addr.i9 = alloca ptr, align 8
  %this.addr.i7 = alloca ptr, align 8
  %this.addr.i5 = alloca ptr, align 8
  %size.addr.i = alloca i64, align 8
  %this.addr.i3 = alloca ptr, align 8
  %this.addr.i = alloca ptr, align 8
  %val_traits.addr.i = alloca ptr, align 8
  %this.addr = alloca ptr, align 8
  %ref.tmp = alloca %"struct.boost::intrusive::mhtraits", align 1
  store ptr %this, ptr %this.addr, align 8
  %this1 = load ptr, ptr %this.addr, align 8
  %data_ = getelementptr inbounds %"class.boost::intrusive::list_impl", ptr %this1, i32 0, i32 0
  store ptr %data_, ptr %this.addr.i, align 8
  store ptr %ref.tmp, ptr %val_traits.addr.i, align 8
  %this1.i = load ptr, ptr %this.addr.i, align 8
  call void @_ZN5boost9intrusive9list_implINS0_8mhtraitsIN8proxygen9ByteEventENS0_16list_member_hookIJNS0_9link_modeILNS0_14link_mode_typeE1EEEEEEXadL_ZNS4_8listHookEEEEEmLb1EvE14root_plus_sizeC2Ev(ptr noundef nonnull align 8 dereferenceable(24) %this1.i)
  store ptr %this1, ptr %this.addr.i3, align 8
  %this1.i4 = load ptr, ptr %this.addr.i3, align 8
  store ptr %this1.i4, ptr %this.addr.i5, align 8
  store i64 0, ptr %size.addr.i, align 8
  %this1.i6 = load ptr, ptr %this.addr.i5, align 8
  %0 = load i64, ptr %size.addr.i, align 8
  store i64 %0, ptr %this1.i6, align 8
  store ptr %this1, ptr %this.addr.i7, align 8
  %this1.i8 = load ptr, ptr %this.addr.i7, align 8
  %m_header.i = getelementptr inbounds %"struct.boost::intrusive::list_impl<boost::intrusive::mhtraits<proxygen::ByteEvent, boost::intrusive::list_member_hook<boost::intrusive::link_mode<boost::intrusive::safe_link>>, &proxygen::ByteEvent::listHook>, unsigned long, true, void>::root_plus_size", ptr %this1.i8, i32 0, i32 1
  store ptr %m_header.i, ptr %this.addr.i9, align 8
  %this1.i10 = load ptr, ptr %this.addr.i9, align 8
  store ptr %this1.i10, ptr %r.addr.i, align 8
  %1 = load ptr, ptr %r.addr.i, align 8
  store ptr %1, ptr %v.addr.i, align 8
  %2 = load ptr, ptr %v.addr.i, align 8
  call void @_ZN5boost9intrusive24circular_list_algorithmsINS0_16list_node_traitsIPvEEE11init_headerEPNS0_9list_nodeIS3_EE(ptr noundef %2) #3
  ret void
}

; Function Attrs: mustprogress uwtable
define linkonce_odr void @_ZN8proxygen16ByteEventTrackerC2EPNS0_8CallbackE(ptr noundef nonnull align 8 dereferenceable(48) %this, ptr noundef %callback) unnamed_addr #4 comdat align 2 {
entry:
  %this.addr.i = alloca ptr, align 8
  %this.addr = alloca ptr, align 8
  %callback.addr = alloca ptr, align 8
  store ptr %this, ptr %this.addr, align 8
  store ptr %callback, ptr %callback.addr, align 8
  %this1 = load ptr, ptr %this.addr, align 8
  store ptr getelementptr inbounds ({ [17 x ptr] }, ptr @_ZTVN8proxygen16ByteEventTrackerE, i32 0, i32 0, i32 2), ptr %this1, align 8
  %bytesWritten_ = getelementptr inbounds %"class.proxygen::ByteEventTracker", ptr %this1, i32 0, i32 1
  store i64 0, ptr %bytesWritten_, align 8
  %byteEvents_ = getelementptr inbounds %"class.proxygen::ByteEventTracker", ptr %this1, i32 0, i32 2
  store ptr %byteEvents_, ptr %this.addr.i, align 8
  %this1.i = load ptr, ptr %this.addr.i, align 8
  call void @_ZN5boost9intrusive9list_implINS0_8mhtraitsIN8proxygen9ByteEventENS0_16list_member_hookIJNS0_9link_modeILNS0_14link_mode_typeE1EEEEEEXadL_ZNS4_8listHookEEEEEmLb1EvEC2Ev(ptr noundef nonnull align 8 dereferenceable(24) %this1.i)
  %callback_ = getelementptr inbounds %"class.proxygen::ByteEventTracker", ptr %this1, i32 0, i32 3
  %0 = load ptr, ptr %callback.addr, align 8
  store ptr %0, ptr %callback_, align 8
  ret void
}

; Function Attrs: mustprogress uwtable
define void @_ZN8proxygen18HQByteEventTrackerC2EPNS_16ByteEventTracker8CallbackEPN4quic10QuicSocketEm(ptr noundef nonnull align 8 dereferenceable(64) %this, ptr noundef %callback, ptr noundef %socket, i64 noundef %streamId) unnamed_addr #4 align 2 {
entry:
  %this.addr = alloca ptr, align 8
  %callback.addr = alloca ptr, align 8
  %socket.addr = alloca ptr, align 8
  %streamId.addr = alloca i64, align 8
  store ptr %this, ptr %this.addr, align 8
  store ptr %callback, ptr %callback.addr, align 8
  store ptr %socket, ptr %socket.addr, align 8
  store i64 %streamId, ptr %streamId.addr, align 8
  %this1 = load ptr, ptr %this.addr, align 8
  %0 = load ptr, ptr %callback.addr, align 8
  call void @_ZN8proxygen16ByteEventTrackerC2EPNS0_8CallbackE(ptr noundef nonnull align 8 dereferenceable(48) %this1, ptr noundef %0)
  store ptr getelementptr inbounds ({ [17 x ptr] }, ptr @_ZTVN8proxygen18HQByteEventTrackerE, i32 0, i32 0, i32 2), ptr %this1, align 8
  %socket_ = getelementptr inbounds %"class.proxygen::HQByteEventTracker", ptr %this1, i32 0, i32 1
  %1 = load ptr, ptr %socket.addr, align 8
  store ptr %1, ptr %socket_, align 8
  %streamId_ = getelementptr inbounds %"class.proxygen::HQByteEventTracker", ptr %this1, i32 0, i32 2
  %2 = load i64, ptr %streamId.addr, align 8
  store i64 %2, ptr %streamId_, align 8
  ret void
}