; Function Attrs: mustprogress nofree norecurse nosync nounwind willreturn memory(argmem: write) uwtable
define void @_ZN8proxygen18HQByteEventTrackerC2EPNS_16ByteEventTracker8CallbackEPN4quic10QuicSocketEm(ptr noundef nonnull align 8 dereferenceable(64) %this, ptr noundef %callback, ptr noundef %socket, i64 noundef %streamId) unnamed_addr #3 align 2 personality ptr @__gxx_personality_v0 {
entry:
  %bytesWritten_.i = getelementptr inbounds i8, ptr %this, i64 8
  %m_header.i1.i.i = getelementptr inbounds i8, ptr %this, i64 24
  tail call void @llvm.memset.p0.i64(ptr noundef nonnull align 8 dereferenceable(16) %bytesWritten_.i, i8 0, i64 16, i1 false)
  store ptr %m_header.i1.i.i, ptr %m_header.i1.i.i, align 8
  %prev_.i.i.i.i = getelementptr inbounds i8, ptr %this, i64 32
  store ptr %m_header.i1.i.i, ptr %prev_.i.i.i.i, align 8
  %callback_.i = getelementptr inbounds i8, ptr %this, i64 40
  store ptr %callback, ptr %callback_.i, align 8
  store ptr getelementptr inbounds ({ [17 x ptr] }, ptr @_ZTVN8proxygen18HQByteEventTrackerE, i64 0, i32 0, i64 2), ptr %this, align 8
  %socket_ = getelementptr inbounds i8, ptr %this, i64 48
  store ptr %socket, ptr %socket_, align 8
  %streamId_ = getelementptr inbounds i8, ptr %this, i64 56
  store i64 %streamId, ptr %streamId_, align 8
  ret void
}